; Function Attrs: mustprogress uwtable
define dso_local void @_ZN13KleeExtension10OutputInitERSo(ptr noundef nonnull align 8 dereferenceable(32) %0, ptr noundef nonnull align 8 dereferenceable(8) %1) unnamed_addr #4 align 2 {
  %3 = tail call noundef nonnull align 8 dereferenceable(8) ptr @_ZSt16__ostream_insertIcSt11char_traitsIcEERSt13basic_ostreamIT_T0_ES6_PKS3_l(ptr noundef nonnull align 8 dereferenceable(8) %1, ptr noundef nonnull @.str.7, i64 noundef 14)
  %4 = load ptr, ptr %1, align 8, !tbaa !4
  %5 = getelementptr i8, ptr %4, i64 -24
  %6 = load i64, ptr %5, align 8
  %7 = getelementptr inbounds i8, ptr %1, i64 %6
  %8 = getelementptr inbounds nuw i8, ptr %7, i64 240
  %9 = load ptr, ptr %8, align 8, !tbaa !34
  %.not.i.i.i = icmp eq ptr %9, null
  br i1 %.not.i.i.i, label %10, label %_ZSt13__check_facetISt5ctypeIcEERKT_PS3_.exit.i.i

10:                                               ; preds = %2
  tail call void @_ZSt16__throw_bad_castv() #14
  unreachable

_ZSt13__check_facetISt5ctypeIcEERKT_PS3_.exit.i.i: ; preds = %2
  %11 = getelementptr inbounds nuw i8, ptr %9, i64 56
  %12 = load i8, ptr %11, align 8, !tbaa !42
  %.not.i1.i.i = icmp eq i8 %12, 0
  br i1 %.not.i1.i.i, label %16, label %13

13:                                               ; preds = %_ZSt13__check_facetISt5ctypeIcEERKT_PS3_.exit.i.i
  %14 = getelementptr inbounds nuw i8, ptr %9, i64 67
  %15 = load i8, ptr %14, align 1, !tbaa !48
  br label %_ZSt4endlIcSt11char_traitsIcEERSt13basic_ostreamIT_T0_ES6_.exit

16:                                               ; preds = %_ZSt13__check_facetISt5ctypeIcEERKT_PS3_.exit.i.i
  tail call void @_ZNKSt5ctypeIcE13_M_widen_initEv(ptr noundef nonnull align 8 dereferenceable(570) %9)
  %17 = load ptr, ptr %9, align 8, !tbaa !4
  %18 = getelementptr inbounds nuw i8, ptr %17, i64 48
  %19 = load ptr, ptr %18, align 8
  %20 = tail call noundef signext i8 %19(ptr noundef nonnull align 8 dereferenceable(570) %9, i8 noundef signext 10)
  br label %_ZSt4endlIcSt11char_traitsIcEERSt13basic_ostreamIT_T0_ES6_.exit

_ZSt4endlIcSt11char_traitsIcEERSt13basic_ostreamIT_T0_ES6_.exit: ; preds = %13, %16
  %.0.i.i.i = phi i8 [ %15, %13 ], [ %20, %16 ]
  %21 = tail call noundef nonnull align 8 dereferenceable(8) ptr @_ZNSo3putEc(ptr noundef nonnull align 8 dereferenceable(8) %1, i8 noundef signext %.0.i.i.i)
  %22 = tail call noundef nonnull align 8 dereferenceable(8) ptr @_ZNSo5flushEv(ptr noundef nonnull align 8 dereferenceable(8) %21)
  %23 = tail call noundef nonnull align 8 dereferenceable(8) ptr @_ZSt16__ostream_insertIcSt11char_traitsIcEERSt13basic_ostreamIT_T0_ES6_PKS3_l(ptr noundef nonnull align 8 dereferenceable(8) %1, ptr noundef nonnull @.str.8, i64 noundef 1)
  %24 = load ptr, ptr %1, align 8, !tbaa !4
  %25 = getelementptr i8, ptr %24, i64 -24
  %26 = load i64, ptr %25, align 8
  %27 = getelementptr inbounds i8, ptr %1, i64 %26
  %28 = getelementptr inbounds nuw i8, ptr %27, i64 240
  %29 = load ptr, ptr %28, align 8, !tbaa !34
  %.not.i.i.i5 = icmp eq ptr %29, null
  br i1 %.not.i.i.i5, label %30, label %_ZSt13__check_facetISt5ctypeIcEERKT_PS3_.exit.i.i6

30:                                               ; preds = %_ZSt4endlIcSt11char_traitsIcEERSt13basic_ostreamIT_T0_ES6_.exit
  tail call void @_ZSt16__throw_bad_castv() #14
  unreachable

_ZSt13__check_facetISt5ctypeIcEERKT_PS3_.exit.i.i6: ; preds = %_ZSt4endlIcSt11char_traitsIcEERSt13basic_ostreamIT_T0_ES6_.exit
  %31 = getelementptr inbounds nuw i8, ptr %29, i64 56
  %32 = load i8, ptr %31, align 8, !tbaa !42
  %.not.i1.i.i7 = icmp eq i8 %32, 0
  br i1 %.not.i1.i.i7, label %36, label %33

33:                                               ; preds = %_ZSt13__check_facetISt5ctypeIcEERKT_PS3_.exit.i.i6
  %34 = getelementptr inbounds nuw i8, ptr %29, i64 67
  %35 = load i8, ptr %34, align 1, !tbaa !48
  br label %_ZSt4endlIcSt11char_traitsIcEERSt13basic_ostreamIT_T0_ES6_.exit9

36:                                               ; preds = %_ZSt13__check_facetISt5ctypeIcEERKT_PS3_.exit.i.i6
  tail call void @_ZNKSt5ctypeIcE13_M_widen_initEv(ptr noundef nonnull align 8 dereferenceable(570) %29)
  %37 = load ptr, ptr %29, align 8, !tbaa !4
  %38 = getelementptr inbounds nuw i8, ptr %37, i64 48
  %39 = load ptr, ptr %38, align 8
  %40 = tail call noundef signext i8 %39(ptr noundef nonnull align 8 dereferenceable(570) %29, i8 noundef signext 10)
  br label %_ZSt4endlIcSt11char_traitsIcEERSt13basic_ostreamIT_T0_ES6_.exit9

_ZSt4endlIcSt11char_traitsIcEERSt13basic_ostreamIT_T0_ES6_.exit9: ; preds = %33, %36
  %.0.i.i.i8 = phi i8 [ %35, %33 ], [ %40, %36 ]
  %41 = tail call noundef nonnull align 8 dereferenceable(8) ptr @_ZNSo3putEc(ptr noundef nonnull align 8 dereferenceable(8) %1, i8 noundef signext %.0.i.i.i8)
  %42 = tail call noundef nonnull align 8 dereferenceable(8) ptr @_ZNSo5flushEv(ptr noundef nonnull align 8 dereferenceable(8) %41)
  %43 = getelementptr inbounds nuw i8, ptr %0, i64 8
  tail call void @_ZN12AbsExtension26default_output_definitionsERSoRSt6vectorIP14ExtensionValueSaIS3_EEb(ptr noundef nonnull align 8 dereferenceable(8) %0, ptr noundef nonnull align 8 dereferenceable(8) %1, ptr noundef nonnull align 8 dereferenceable(24) %43, i1 noundef zeroext false)
  tail call void @_ZN13KleeExtension16output_symbolicsERSo(ptr noundef nonnull align 8 dereferenceable(32) %0, ptr noundef nonnull align 8 dereferenceable(8) %1)
  ret void
}